; Function Attrs: mustprogress uwtable
define internal void @_ZN9grpc_core12_GLOBAL__N_118WeightedRoundRobin14ShutdownLockedEv(ptr noundef nonnull align 8 dereferenceable(436) %this) unnamed_addr #3 align 2 personality ptr @__gxx_personality_v0 {
entry:
  %0 = load atomic i8, ptr getelementptr inbounds (%"class.grpc_core::TraceFlag", ptr @_ZN9grpc_core17grpc_lb_wrr_traceE, i64 0, i32 2, i32 0, i32 0) monotonic, align 8
  %1 = and i8 %0, 1
  %tobool.i.i.i.not = icmp eq i8 %1, 0
  br i1 %tobool.i.i.i.not, label %if.end, label %if.then

if.then:                                          ; preds = %entry
  tail call void (ptr, i32, i32, ptr, ...) @gpr_log(ptr noundef nonnull @.str.18, i32 noundef 1502, i32 noundef 1, ptr noundef nonnull @.str.87, ptr noundef nonnull %this)
  br label %if.end

if.end:                                           ; preds = %if.then, %entry
  %shutdown_ = getelementptr inbounds i8, ptr %this, i64 136
  store i8 1, ptr %shutdown_, align 8
  %endpoint_list_ = getelementptr inbounds i8, ptr %this, i64 64
  %2 = load ptr, ptr %endpoint_list_, align 8
  store ptr null, ptr %endpoint_list_, align 8
  %tobool.not.i.i = icmp eq ptr %2, null
  br i1 %tobool.not.i.i, label %_ZNSt10unique_ptrIN9grpc_core12_GLOBAL__N_118WeightedRoundRobin15WrrEndpointListENS0_16OrphanableDeleteEE5resetEPS3_.exit, label %if.then.i.i

if.then.i.i:                                      ; preds = %if.end
  %vtable.i.i.i = load ptr, ptr %2, align 8
  %3 = load ptr, ptr %vtable.i.i.i, align 8
  invoke void %3(ptr noundef nonnull align 8 dereferenceable(56) %2)
          to label %_ZNSt10unique_ptrIN9grpc_core12_GLOBAL__N_118WeightedRoundRobin15WrrEndpointListENS0_16OrphanableDeleteEE5resetEPS3_.exit unwind label %terminate.lpad.i.i

terminate.lpad.i.i:                               ; preds = %if.then.i.i
  %4 = landingpad { ptr, i32 }
          catch ptr null
  %5 = extractvalue { ptr, i32 } %4, 0
  tail call void @__clang_call_terminate(ptr %5) #31
  unreachable

_ZNSt10unique_ptrIN9grpc_core12_GLOBAL__N_118WeightedRoundRobin15WrrEndpointListENS0_16OrphanableDeleteEE5resetEPS3_.exit: ; preds = %if.end, %if.then.i.i
  %latest_pending_endpoint_list_ = getelementptr inbounds i8, ptr %this, i64 72
  %6 = load ptr, ptr %latest_pending_endpoint_list_, align 8
  store ptr null, ptr %latest_pending_endpoint_list_, align 8
  %tobool.not.i.i1 = icmp eq ptr %6, null
  br i1 %tobool.not.i.i1, label %_ZNSt10unique_ptrIN9grpc_core12_GLOBAL__N_118WeightedRoundRobin15WrrEndpointListENS0_16OrphanableDeleteEE5resetEPS3_.exit5, label %if.then.i.i2

if.then.i.i2:                                     ; preds = %_ZNSt10unique_ptrIN9grpc_core12_GLOBAL__N_118WeightedRoundRobin15WrrEndpointListENS0_16OrphanableDeleteEE5resetEPS3_.exit
  %vtable.i.i.i3 = load ptr, ptr %6, align 8
  %7 = load ptr, ptr %vtable.i.i.i3, align 8
  invoke void %7(ptr noundef nonnull align 8 dereferenceable(56) %6)
          to label %_ZNSt10unique_ptrIN9grpc_core12_GLOBAL__N_118WeightedRoundRobin15WrrEndpointListENS0_16OrphanableDeleteEE5resetEPS3_.exit5 unwind label %terminate.lpad.i.i4

terminate.lpad.i.i4:                              ; preds = %if.then.i.i2
  %8 = landingpad { ptr, i32 }
          catch ptr null
  %9 = extractvalue { ptr, i32 } %8, 0
  tail call void @__clang_call_terminate(ptr %9) #31
  unreachable

_ZNSt10unique_ptrIN9grpc_core12_GLOBAL__N_118WeightedRoundRobin15WrrEndpointListENS0_16OrphanableDeleteEE5resetEPS3_.exit5: ; preds = %_ZNSt10unique_ptrIN9grpc_core12_GLOBAL__N_118WeightedRoundRobin15WrrEndpointListENS0_16OrphanableDeleteEE5resetEPS3_.exit, %if.then.i.i2
  ret void
}